; ModuleID = 'source-C-CXX/59/1757.c'
source_filename = "source-C-CXX/59/1757.c"
target datalayout = "e-m:e-p270:32:32-p271:32:32-p272:64:64-i64:64-f80:128-n8:16:32:64-S128"
target triple = "x86_64-pc-linux-gnu"

@.str = private unnamed_addr constant [3 x i8] c"%d\00", align 1
@.str.1 = private unnamed_addr constant [7 x i8] c"%d %d\0A\00", align 1
@str = private unnamed_addr constant [6 x i8] c"empty\00", align 1

; Function Attrs: nofree nounwind sspstrong uwtable
define dso_local i32 @main() local_unnamed_addr #0 {
  %1 = alloca i32, align 4
  %2 = alloca [100 x i32], align 16
  %3 = bitcast i32* %1 to i8*
  call void @llvm.lifetime.start.p0i8(i64 4, i8* nonnull %3) #4
  %4 = bitcast [100 x i32]* %2 to i8*
  call void @llvm.lifetime.start.p0i8(i64 400, i8* nonnull %4) #4
  %5 = call i32 (i8*, ...) @__isoc99_scanf(i8* getelementptr inbounds ([3 x i8], [3 x i8]* @.str, i64 0, i64 0), i32* nonnull %1)
  %6 = load i32, i32* %1, align 4, !tbaa !5
  %7 = icmp slt i32 %6, 2
  br i1 %7, label %52, label %8

8:                                                ; preds = %0, %32
  %9 = phi i32 [ %33, %32 ], [ 0, %0 ]
  %10 = phi i32 [ %34, %32 ], [ 2, %0 ]
  %11 = icmp ugt i32 %10, 2
  br i1 %11, label %18, label %25

12:                                               ; preds = %32
  %13 = icmp sgt i32 %33, 1
  br i1 %13, label %14, label %52

14:                                               ; preds = %12
  %15 = zext i32 %33 to i64
  %16 = getelementptr inbounds [100 x i32], [100 x i32]* %2, i64 0, i64 0
  %17 = load i32, i32* %16, align 16, !tbaa !5
  br label %36

18:                                               ; preds = %8, %22
  %19 = phi i32 [ %23, %22 ], [ 2, %8 ]
  %20 = urem i32 %10, %19
  %21 = icmp eq i32 %20, 0
  br i1 %21, label %25, label %22

22:                                               ; preds = %18
  %23 = add nuw nsw i32 %19, 1
  %24 = icmp eq i32 %23, %10
  br i1 %24, label %28, label %18, !llvm.loop !9

25:                                               ; preds = %18, %8
  %26 = phi i32 [ 2, %8 ], [ %19, %18 ]
  %27 = icmp eq i32 %26, %10
  br i1 %27, label %28, label %32

28:                                               ; preds = %22, %25
  %29 = sext i32 %9 to i64
  %30 = getelementptr inbounds [100 x i32], [100 x i32]* %2, i64 0, i64 %29
  store i32 %10, i32* %30, align 4, !tbaa !5
  %31 = add nsw i32 %9, 1
  br label %32

32:                                               ; preds = %25, %28
  %33 = phi i32 [ %31, %28 ], [ %9, %25 ]
  %34 = add nuw i32 %10, 1
  %35 = icmp eq i32 %10, %6
  br i1 %35, label %12, label %8, !llvm.loop !11

36:                                               ; preds = %14, %46
  %37 = phi i32 [ %17, %14 ], [ %41, %46 ]
  %38 = phi i64 [ 1, %14 ], [ %48, %46 ]
  %39 = phi i32 [ 0, %14 ], [ %47, %46 ]
  %40 = getelementptr inbounds [100 x i32], [100 x i32]* %2, i64 0, i64 %38
  %41 = load i32, i32* %40, align 4, !tbaa !5
  %42 = sub nsw i32 %41, %37
  %43 = icmp eq i32 %42, 2
  br i1 %43, label %44, label %46

44:                                               ; preds = %36
  %45 = call i32 (i8*, ...) @printf(i8* nonnull dereferenceable(1) getelementptr inbounds ([7 x i8], [7 x i8]* @.str.1, i64 0, i64 0), i32 %37, i32 %41)
  br label %46

46:                                               ; preds = %36, %44
  %47 = phi i32 [ 1, %44 ], [ %39, %36 ]
  %48 = add nuw nsw i64 %38, 1
  %49 = icmp eq i64 %48, %15
  br i1 %49, label %50, label %36, !llvm.loop !12

50:                                               ; preds = %46
  %51 = icmp eq i32 %47, 0
  br i1 %51, label %52, label %54

52:                                               ; preds = %0, %12, %50
  %53 = call i32 @puts(i8* nonnull dereferenceable(1) getelementptr inbounds ([6 x i8], [6 x i8]* @str, i64 0, i64 0))
  br label %54

54:                                               ; preds = %52, %50
  call void @llvm.lifetime.end.p0i8(i64 400, i8* nonnull %4) #4
  call void @llvm.lifetime.end.p0i8(i64 4, i8* nonnull %3) #4
  ret i32 0
}

; Function Attrs: argmemonly mustprogress nofree nosync nounwind willreturn
declare void @llvm.lifetime.start.p0i8(i64 immarg, i8* nocapture) #1

; Function Attrs: nofree nounwind
declare noundef i32 @__isoc99_scanf(i8* nocapture noundef readonly, ...) local_unnamed_addr #2

; Function Attrs: nofree nounwind
declare noundef i32 @printf(i8* nocapture noundef readonly, ...) local_unnamed_addr #2

; Function Attrs: argmemonly mustprogress nofree nosync nounwind willreturn
declare void @llvm.lifetime.end.p0i8(i64 immarg, i8* nocapture) #1

; Function Attrs: nofree nounwind
declare noundef i32 @puts(i8* nocapture noundef readonly) local_unnamed_addr #3


!llvm.module.flags = !{!0, !1, !2, !3}
!llvm.ident = !{!4}

!0 = !{i32 1, !"wchar_size", i32 4}
!1 = !{i32 7, !"PIC Level", i32 2}
!2 = !{i32 7, !"PIE Level", i32 2}
!3 = !{i32 7, !"uwtable", i32 1}
!4 = !{!"clang version 13.0.0"}
!5 = !{!6, !6, i64 0}
!6 = !{!"int", !7, i64 0}
!7 = !{!"omnipotent char", !8, i64 0}
!8 = !{!"Simple C/C++ TBAA"}
!9 = distinct !{!9, !10}
!10 = !{!"llvm.loop.mustprogress"}
!11 = distinct !{!11, !10}
!12 = distinct !{!12, !10}
